target datalayout = "e-m:e-p270:32:32-p271:32:32-p272:64:64-i64:64-i128:128-f80:128-n8:16:32:64-S128"
target triple = "x86_64-unknown-linux-gnu"

%"struct.(anonymous namespace)::bool_var_act_lt" = type { ptr }
%"class.(anonymous namespace)::dact_case_split_queue" = type { %"class.(anonymous namespace)::act_case_split_queue", %class.heap }
%"class.(anonymous namespace)::act_case_split_queue" = type { %"class.smt::case_split_queue", ptr, ptr, %class.heap }
%"class.smt::case_split_queue" = type { ptr }
%class.heap = type { %"struct.(anonymous namespace)::bool_var_act_lt", %class.svector.86, %class.svector.86 }
%class.svector.86 = type { %class.vector.87 }
%class.vector.87 = type { ptr }

; Function Attrs: mustprogress nounwind uwtable
define linkonce_odr hidden noundef nonnull align 4 dereferenceable(4) ptr @_ZNK6vectorIiLb0EjEixEj(ptr noundef nonnull align 8 dereferenceable(8) %this, i32 noundef %idx) #4 comdat align 2 {
entry:
  %this.addr = alloca ptr, align 8
  %idx.addr = alloca i32, align 4
  store ptr %this, ptr %this.addr, align 8
  store i32 %idx, ptr %idx.addr, align 4
  %this1 = load ptr, ptr %this.addr, align 8
  %m_data = getelementptr inbounds %class.vector.87, ptr %this1, i32 0, i32 0
  %0 = load ptr, ptr %m_data, align 8
  %1 = load i32, ptr %idx.addr, align 4
  %idxprom = zext i32 %1 to i64
  %arrayidx = getelementptr inbounds i32, ptr %0, i64 %idxprom
  ret ptr %arrayidx
}

; Function Attrs: mustprogress nounwind uwtable
define linkonce_odr hidden noundef i32 @_ZNK6vectorIiLb0EjE4sizeEv(ptr noundef nonnull align 8 dereferenceable(8) %this) #4 comdat align 2 {
entry:
  %retval = alloca i32, align 4
  %this.addr = alloca ptr, align 8
  store ptr %this, ptr %this.addr, align 8
  %this1 = load ptr, ptr %this.addr, align 8
  %m_data = getelementptr inbounds %class.vector.87, ptr %this1, i32 0, i32 0
  %0 = load ptr, ptr %m_data, align 8
  %cmp = icmp eq ptr %0, null
  br i1 %cmp, label %if.then, label %if.end

if.then:                                          ; preds = %entry
  store i32 0, ptr %retval, align 4
  br label %return

if.end:                                           ; preds = %entry
  %m_data2 = getelementptr inbounds %class.vector.87, ptr %this1, i32 0, i32 0
  %1 = load ptr, ptr %m_data2, align 8
  %arrayidx = getelementptr inbounds i32, ptr %1, i64 -1
  %2 = load i32, ptr %arrayidx, align 4
  store i32 %2, ptr %retval, align 4
  br label %return

return:                                           ; preds = %if.end, %if.then
  %3 = load i32, ptr %retval, align 4
  ret i32 %3
}

; Function Attrs: mustprogress uwtable
define internal noundef zeroext i1 @_ZNK4heapIN12_GLOBAL__N_115bool_var_act_ltEE8containsEi(ptr noundef nonnull align 8 dereferenceable(24) %this, i32 noundef %val) #5 align 2 {
entry:
  %this.addr = alloca ptr, align 8
  %val.addr = alloca i32, align 4
  store ptr %this, ptr %this.addr, align 8
  store i32 %val, ptr %val.addr, align 4
  %this1 = load ptr, ptr %this.addr, align 8
  %0 = load i32, ptr %val.addr, align 4
  %m_value2indices = getelementptr inbounds %class.heap, ptr %this1, i32 0, i32 2
  %call = call noundef i32 @_ZNK6vectorIiLb0EjE4sizeEv(ptr noundef nonnull align 8 dereferenceable(8) %m_value2indices)
  %cmp = icmp slt i32 %0, %call
  br i1 %cmp, label %land.rhs, label %land.end

land.rhs:                                         ; preds = %entry
  %m_value2indices2 = getelementptr inbounds %class.heap, ptr %this1, i32 0, i32 2
  %1 = load i32, ptr %val.addr, align 4
  %call3 = call noundef nonnull align 4 dereferenceable(4) ptr @_ZNK6vectorIiLb0EjEixEj(ptr noundef nonnull align 8 dereferenceable(8) %m_value2indices2, i32 noundef %1)
  %2 = load i32, ptr %call3, align 4
  %cmp4 = icmp ne i32 %2, 0
  br label %land.end

land.end:                                         ; preds = %land.rhs, %entry
  %3 = phi i1 [ false, %entry ], [ %cmp4, %land.rhs ]
  ret i1 %3
}

; Function Attrs: mustprogress uwtable
define internal void @_ZN12_GLOBAL__N_120act_case_split_queue10del_var_ehEj(ptr noundef nonnull align 8 dereferenceable(48) %this, i32 noundef %v) unnamed_addr #5 align 2 {
entry:
  %this.addr = alloca ptr, align 8
  %v.addr = alloca i32, align 4
  store ptr %this, ptr %this.addr, align 8
  store i32 %v, ptr %v.addr, align 4
  %this1 = load ptr, ptr %this.addr, align 8
  %m_queue = getelementptr inbounds %"class.(anonymous namespace)::act_case_split_queue", ptr %this1, i32 0, i32 3
  %0 = load i32, ptr %v.addr, align 4
  %call = call noundef zeroext i1 @_ZNK4heapIN12_GLOBAL__N_115bool_var_act_ltEE8containsEi(ptr noundef nonnull align 8 dereferenceable(24) %m_queue, i32 noundef %0)
  br i1 %call, label %if.then, label %if.end

if.then:                                          ; preds = %entry
  %m_queue2 = getelementptr inbounds %"class.(anonymous namespace)::act_case_split_queue", ptr %this1, i32 0, i32 3
  %1 = load i32, ptr %v.addr, align 4
  call void @_ZN4heapIN12_GLOBAL__N_115bool_var_act_ltEE5eraseEi(ptr noundef nonnull align 8 dereferenceable(24) %m_queue2, i32 noundef %1)
  br label %if.end

if.end:                                           ; preds = %if.then, %entry
  ret void
}

; Function Attrs: mustprogress uwtable
define internal void @_ZN12_GLOBAL__N_121dact_case_split_queue10del_var_ehEj(ptr noundef nonnull align 8 dereferenceable(72) %this, i32 noundef %v) unnamed_addr #5 align 2 {
entry:
  %this.addr = alloca ptr, align 8
  %v.addr = alloca i32, align 4
  store ptr %this, ptr %this.addr, align 8
  store i32 %v, ptr %v.addr, align 4
  %this1 = load ptr, ptr %this.addr, align 8
  %0 = load i32, ptr %v.addr, align 4
  call void @_ZN12_GLOBAL__N_120act_case_split_queue10del_var_ehEj(ptr noundef nonnull align 8 dereferenceable(48) %this1, i32 noundef %0)
  %m_delayed_queue = getelementptr inbounds %"class.(anonymous namespace)::dact_case_split_queue", ptr %this1, i32 0, i32 1
  %1 = load i32, ptr %v.addr, align 4
  %call = call noundef zeroext i1 @_ZNK4heapIN12_GLOBAL__N_115bool_var_act_ltEE8containsEi(ptr noundef nonnull align 8 dereferenceable(24) %m_delayed_queue, i32 noundef %1)
  br i1 %call, label %if.then, label %if.end

if.then:                                          ; preds = %entry
  %m_delayed_queue2 = getelementptr inbounds %"class.(anonymous namespace)::dact_case_split_queue", ptr %this1, i32 0, i32 1
  %2 = load i32, ptr %v.addr, align 4
  call void @_ZN4heapIN12_GLOBAL__N_115bool_var_act_ltEE5eraseEi(ptr noundef nonnull align 8 dereferenceable(24) %m_delayed_queue2, i32 noundef %2)
  br label %if.end

if.end:                                           ; preds = %if.then, %entry
  ret void
}