; Function Attrs: mustprogress nofree norecurse nosync nounwind memory(readwrite, inaccessiblemem: none) uwtable
define internal void @_ZN12_GLOBAL__N_121dact_case_split_queue10del_var_ehEj(ptr nocapture noundef nonnull readonly align 8 dereferenceable(72) %this, i32 noundef %v) unnamed_addr #4 align 2 {
entry:
  %m_queue.i = getelementptr inbounds i8, ptr %this, i64 24
  %0 = getelementptr inbounds i8, ptr %this, i64 40
  %m_queue.val.i = load ptr, ptr %0, align 8
  %cmp.i.i.i = icmp eq ptr %m_queue.val.i, null
  br i1 %cmp.i.i.i, label %_ZNK6vectorIiLb0EjE4sizeEv.exit.i.i, label %if.end.i.i.i

if.end.i.i.i:                                     ; preds = %entry
  %arrayidx.i.i.i = getelementptr inbounds i8, ptr %m_queue.val.i, i64 -4
  %1 = load i32, ptr %arrayidx.i.i.i, align 4
  br label %_ZNK6vectorIiLb0EjE4sizeEv.exit.i.i

_ZNK6vectorIiLb0EjE4sizeEv.exit.i.i:              ; preds = %if.end.i.i.i, %entry
  %retval.0.i.i.i = phi i32 [ %1, %if.end.i.i.i ], [ 0, %entry ]
  %cmp.i.i = icmp sgt i32 %retval.0.i.i.i, %v
  br i1 %cmp.i.i, label %_ZNK4heapIN12_GLOBAL__N_115bool_var_act_ltEE8containsEi.exit.i, label %_ZN12_GLOBAL__N_120act_case_split_queue10del_var_ehEj.exit

_ZNK4heapIN12_GLOBAL__N_115bool_var_act_ltEE8containsEi.exit.i: ; preds = %_ZNK6vectorIiLb0EjE4sizeEv.exit.i.i
  %idxprom.i.i.i = zext i32 %v to i64
  %arrayidx.i2.i.i = getelementptr inbounds i32, ptr %m_queue.val.i, i64 %idxprom.i.i.i
  %2 = load i32, ptr %arrayidx.i2.i.i, align 4
  %cmp4.i.not.i = icmp eq i32 %2, 0
  br i1 %cmp4.i.not.i, label %_ZN12_GLOBAL__N_120act_case_split_queue10del_var_ehEj.exit, label %if.then.i

if.then.i:                                        ; preds = %_ZNK4heapIN12_GLOBAL__N_115bool_var_act_ltEE8containsEi.exit.i
  tail call fastcc void @_ZN4heapIN12_GLOBAL__N_115bool_var_act_ltEE5eraseEi(ptr noundef nonnull align 8 dereferenceable(24) %m_queue.i, i32 noundef %v)
  br label %_ZN12_GLOBAL__N_120act_case_split_queue10del_var_ehEj.exit

_ZN12_GLOBAL__N_120act_case_split_queue10del_var_ehEj.exit: ; preds = %_ZNK6vectorIiLb0EjE4sizeEv.exit.i.i, %_ZNK4heapIN12_GLOBAL__N_115bool_var_act_ltEE8containsEi.exit.i, %if.then.i
  %m_delayed_queue = getelementptr inbounds i8, ptr %this, i64 48
  %3 = getelementptr inbounds i8, ptr %this, i64 64
  %m_delayed_queue.val = load ptr, ptr %3, align 8
  %cmp.i.i3 = icmp eq ptr %m_delayed_queue.val, null
  br i1 %cmp.i.i3, label %_ZNK6vectorIiLb0EjE4sizeEv.exit.i, label %if.end.i.i

if.end.i.i:                                       ; preds = %_ZN12_GLOBAL__N_120act_case_split_queue10del_var_ehEj.exit
  %arrayidx.i.i = getelementptr inbounds i8, ptr %m_delayed_queue.val, i64 -4
  %4 = load i32, ptr %arrayidx.i.i, align 4
  br label %_ZNK6vectorIiLb0EjE4sizeEv.exit.i

_ZNK6vectorIiLb0EjE4sizeEv.exit.i:                ; preds = %if.end.i.i, %_ZN12_GLOBAL__N_120act_case_split_queue10del_var_ehEj.exit
  %retval.0.i.i = phi i32 [ %4, %if.end.i.i ], [ 0, %_ZN12_GLOBAL__N_120act_case_split_queue10del_var_ehEj.exit ]
  %cmp.i = icmp sgt i32 %retval.0.i.i, %v
  br i1 %cmp.i, label %_ZNK4heapIN12_GLOBAL__N_115bool_var_act_ltEE8containsEi.exit, label %if.end

_ZNK4heapIN12_GLOBAL__N_115bool_var_act_ltEE8containsEi.exit: ; preds = %_ZNK6vectorIiLb0EjE4sizeEv.exit.i
  %idxprom.i.i = zext i32 %v to i64
  %arrayidx.i2.i = getelementptr inbounds i32, ptr %m_delayed_queue.val, i64 %idxprom.i.i
  %5 = load i32, ptr %arrayidx.i2.i, align 4
  %cmp4.i.not = icmp eq i32 %5, 0
  br i1 %cmp4.i.not, label %if.end, label %if.then

if.then:                                          ; preds = %_ZNK4heapIN12_GLOBAL__N_115bool_var_act_ltEE8containsEi.exit
  tail call fastcc void @_ZN4heapIN12_GLOBAL__N_115bool_var_act_ltEE5eraseEi(ptr noundef nonnull align 8 dereferenceable(24) %m_delayed_queue, i32 noundef %v)
  br label %if.end

if.end:                                           ; preds = %_ZNK6vectorIiLb0EjE4sizeEv.exit.i, %if.then, %_ZNK4heapIN12_GLOBAL__N_115bool_var_act_ltEE8containsEi.exit
  ret void
}